target datalayout = "e-m:e-p270:32:32-p271:32:32-p272:64:64-i64:64-i128:128-f80:128-n8:16:32:64-S128"
target triple = "x86_64-pc-linux-gnu"

%struct.Vec_Int_t_ = type { i32, i32, ptr }
%struct.Gia_Man_t_ = type { ptr, ptr, i32, i32, i32, i32, ptr, ptr, i32, i32, i32, ptr, ptr, %struct.Vec_Int_t_, %struct.Vec_Int_t_, i32, i32, i32, %struct.Vec_Int_t_, ptr, ptr, ptr, i32, i32, i32, i32, ptr, ptr, ptr, ptr, ptr, i32, i32, ptr, i32, ptr, ptr, ptr, ptr, ptr, ptr, ptr, ptr, ptr, ptr, ptr, ptr, ptr, ptr, ptr, ptr, ptr, ptr, %struct.Vec_Int_t_, %struct.Vec_Int_t_, ptr, ptr, ptr, ptr, ptr, ptr, ptr, ptr, ptr, ptr, ptr, ptr, ptr, ptr, ptr, ptr, ptr, ptr, ptr, ptr, ptr, i32, float, float, ptr, ptr, i32, ptr, ptr, ptr, ptr, ptr, ptr, ptr, ptr, ptr, ptr, ptr, ptr, ptr, ptr, ptr, i64, i64, ptr, ptr, i32, i32, i32, i32, i32, i32, i32, i32, i32, i32, i32, i32, ptr, ptr, ptr, ptr, ptr, ptr, ptr, ptr, i32, i32, i32, ptr, i32, i32, ptr, ptr, ptr, ptr, ptr, ptr, i32, i32, ptr, %struct.Vec_Int_t_, %struct.Vec_Int_t_, %struct.Vec_Int_t_, ptr, ptr, ptr, i32, i32, i32, i32, ptr, ptr, ptr, ptr, ptr }
%struct.Gia_Obj_t_ = type <{ i64, i32 }>

; Function Attrs: inlinehint nounwind uwtable
define internal void @Gia_ObjSetTravIdCurrentId(ptr noundef %0, i32 noundef %1) #5 {
  %3 = alloca ptr, align 8
  %4 = alloca i32, align 4
  store ptr %0, ptr %3, align 8, !tbaa !28
  store i32 %1, ptr %4, align 4, !tbaa !16
  %5 = load ptr, ptr %3, align 8, !tbaa !28
  %6 = getelementptr inbounds nuw %struct.Gia_Man_t_, ptr %5, i32 0, i32 24
  %7 = load i32, ptr %6, align 8, !tbaa !148
  %8 = load ptr, ptr %3, align 8, !tbaa !28
  %9 = getelementptr inbounds nuw %struct.Gia_Man_t_, ptr %8, i32 0, i32 80
  %10 = load ptr, ptr %9, align 8, !tbaa !147
  %11 = load i32, ptr %4, align 4, !tbaa !16
  %12 = sext i32 %11 to i64
  %13 = getelementptr inbounds i32, ptr %10, i64 %12
  store i32 %7, ptr %13, align 4, !tbaa !16
  ret void
}

; Function Attrs: inlinehint nounwind uwtable
define internal i32 @Gia_ObjIsTravIdCurrentId(ptr noundef %0, i32 noundef %1) #5 {
  %3 = alloca ptr, align 8
  %4 = alloca i32, align 4
  store ptr %0, ptr %3, align 8, !tbaa !28
  store i32 %1, ptr %4, align 4, !tbaa !16
  %5 = load ptr, ptr %3, align 8, !tbaa !28
  %6 = getelementptr inbounds nuw %struct.Gia_Man_t_, ptr %5, i32 0, i32 80
  %7 = load ptr, ptr %6, align 8, !tbaa !147
  %8 = load i32, ptr %4, align 4, !tbaa !16
  %9 = sext i32 %8 to i64
  %10 = getelementptr inbounds i32, ptr %7, i64 %9
  %11 = load i32, ptr %10, align 4, !tbaa !16
  %12 = load ptr, ptr %3, align 8, !tbaa !28
  %13 = getelementptr inbounds nuw %struct.Gia_Man_t_, ptr %12, i32 0, i32 24
  %14 = load i32, ptr %13, align 8, !tbaa !148
  %15 = icmp eq i32 %11, %14
  %16 = zext i1 %15 to i32
  ret i32 %16
}

; Function Attrs: inlinehint nounwind uwtable
define internal i32 @Gia_ObjFaninC1(ptr noundef %0) #5 {
  %2 = alloca ptr, align 8
  store ptr %0, ptr %2, align 8, !tbaa !129
  %3 = load ptr, ptr %2, align 8, !tbaa !129
  %4 = load i64, ptr %3, align 4
  %5 = lshr i64 %4, 61
  %6 = and i64 %5, 1
  %7 = trunc i64 %6 to i32
  ret i32 %7
}

; Function Attrs: inlinehint nounwind uwtable
define internal i32 @Gia_ObjFaninId1(ptr noundef %0, i32 noundef %1) #5 {
  %3 = alloca ptr, align 8
  %4 = alloca i32, align 4
  store ptr %0, ptr %3, align 8, !tbaa !129
  store i32 %1, ptr %4, align 4, !tbaa !16
  %5 = load i32, ptr %4, align 4, !tbaa !16
  %6 = load ptr, ptr %3, align 8, !tbaa !129
  %7 = load i64, ptr %6, align 4
  %8 = lshr i64 %7, 32
  %9 = and i64 %8, 536870911
  %10 = trunc i64 %9 to i32
  %11 = sub nsw i32 %5, %10
  ret i32 %11
}

; Function Attrs: inlinehint nounwind uwtable
define internal i32 @Gia_ObjFaninC0(ptr noundef %0) #5 {
  %2 = alloca ptr, align 8
  store ptr %0, ptr %2, align 8, !tbaa !129
  %3 = load ptr, ptr %2, align 8, !tbaa !129
  %4 = load i64, ptr %3, align 4
  %5 = lshr i64 %4, 29
  %6 = and i64 %5, 1
  %7 = trunc i64 %6 to i32
  ret i32 %7
}

; Function Attrs: inlinehint nounwind uwtable
define internal i32 @Gia_ObjFaninId0(ptr noundef %0, i32 noundef %1) #5 {
  %3 = alloca ptr, align 8
  %4 = alloca i32, align 4
  store ptr %0, ptr %3, align 8, !tbaa !129
  store i32 %1, ptr %4, align 4, !tbaa !16
  %5 = load i32, ptr %4, align 4, !tbaa !16
  %6 = load ptr, ptr %3, align 8, !tbaa !129
  %7 = load i64, ptr %6, align 4
  %8 = and i64 %7, 536870911
  %9 = trunc i64 %8 to i32
  %10 = sub nsw i32 %5, %9
  ret i32 %10
}

; Function Attrs: inlinehint nounwind uwtable
define internal i32 @Gia_ObjIsCi(ptr noundef %0) #5 {
  %2 = alloca ptr, align 8
  store ptr %0, ptr %2, align 8, !tbaa !129
  %3 = load ptr, ptr %2, align 8, !tbaa !129
  %4 = load i64, ptr %3, align 4
  %5 = lshr i64 %4, 31
  %6 = and i64 %5, 1
  %7 = trunc i64 %6 to i32
  %8 = icmp ne i32 %7, 0
  br i1 %8, label %9, label %15

9:                                                ; preds = %1
  %10 = load ptr, ptr %2, align 8, !tbaa !129
  %11 = load i64, ptr %10, align 4
  %12 = and i64 %11, 536870911
  %13 = trunc i64 %12 to i32
  %14 = icmp eq i32 %13, 536870911
  br label %15

15:                                               ; preds = %9, %1
  %16 = phi i1 [ false, %1 ], [ %14, %9 ]
  %17 = zext i1 %16 to i32
  ret i32 %17
}

; Function Attrs: inlinehint nounwind uwtable
define internal i32 @Gia_ObjUpdateTravIdCurrentId(ptr noundef %0, i32 noundef %1) #5 {
  %3 = alloca i32, align 4
  %4 = alloca ptr, align 8
  %5 = alloca i32, align 4
  store ptr %0, ptr %4, align 8, !tbaa !28
  store i32 %1, ptr %5, align 4, !tbaa !16
  %6 = load ptr, ptr %4, align 8, !tbaa !28
  %7 = load i32, ptr %5, align 4, !tbaa !16
  %8 = call i32 @Gia_ObjIsTravIdCurrentId(ptr noundef %6, i32 noundef %7)
  %9 = icmp ne i32 %8, 0
  br i1 %9, label %10, label %11

10:                                               ; preds = %2
  store i32 1, ptr %3, align 4
  br label %14

11:                                               ; preds = %2
  %12 = load ptr, ptr %4, align 8, !tbaa !28
  %13 = load i32, ptr %5, align 4, !tbaa !16
  call void @Gia_ObjSetTravIdCurrentId(ptr noundef %12, i32 noundef %13)
  store i32 0, ptr %3, align 4
  br label %14

14:                                               ; preds = %11, %10
  %15 = load i32, ptr %3, align 4
  ret i32 %15
}

; Function Attrs: inlinehint nounwind uwtable
define internal ptr @Gia_ManObj(ptr noundef %0, i32 noundef %1) #5 {
  %3 = alloca ptr, align 8
  %4 = alloca i32, align 4
  store ptr %0, ptr %3, align 8, !tbaa !28
  store i32 %1, ptr %4, align 4, !tbaa !16
  %5 = load ptr, ptr %3, align 8, !tbaa !28
  %6 = getelementptr inbounds nuw %struct.Gia_Man_t_, ptr %5, i32 0, i32 6
  %7 = load ptr, ptr %6, align 8, !tbaa !142
  %8 = load i32, ptr %4, align 4, !tbaa !16
  %9 = sext i32 %8 to i64
  %10 = getelementptr inbounds %struct.Gia_Obj_t_, ptr %7, i64 %9
  ret ptr %10
}

; Function Attrs: inlinehint nounwind uwtable
define internal i32 @Cbs3_ManToSolver2_rec(ptr noundef %0, ptr noundef %1, i32 noundef %2, i32 noundef %3) #5 {
  %5 = alloca i32, align 4
  %6 = alloca ptr, align 8
  %7 = alloca ptr, align 8
  %8 = alloca i32, align 4
  %9 = alloca i32, align 4
  %10 = alloca ptr, align 8
  %11 = alloca i32, align 4
  %12 = alloca i32, align 4
  %13 = alloca i32, align 4
  store ptr %0, ptr %6, align 8, !tbaa !14
  store ptr %1, ptr %7, align 8, !tbaa !28
  store i32 %2, ptr %8, align 4, !tbaa !16
  store i32 %3, ptr %9, align 4, !tbaa !16
  call void @llvm.lifetime.start.p0(i64 8, ptr %10) #12
  %14 = load ptr, ptr %7, align 8, !tbaa !28
  %15 = load i32, ptr %8, align 4, !tbaa !16
  %16 = call ptr @Gia_ManObj(ptr noundef %14, i32 noundef %15)
  store ptr %16, ptr %10, align 8, !tbaa !129
  call void @llvm.lifetime.start.p0(i64 4, ptr %11) #12
  call void @llvm.lifetime.start.p0(i64 4, ptr %12) #12
  %17 = load ptr, ptr %7, align 8, !tbaa !28
  %18 = load i32, ptr %8, align 4, !tbaa !16
  %19 = call i32 @Gia_ObjUpdateTravIdCurrentId(ptr noundef %17, i32 noundef %18)
  %20 = icmp ne i32 %19, 0
  br i1 %20, label %21, label %25

21:                                               ; preds = %4
  %22 = load ptr, ptr %10, align 8, !tbaa !129
  %23 = getelementptr inbounds nuw %struct.Gia_Obj_t_, ptr %22, i32 0, i32 1
  %24 = load i32, ptr %23, align 4, !tbaa !143
  store i32 %24, ptr %5, align 4
  store i32 1, ptr %13, align 4
  br label %72

25:                                               ; preds = %4
  %26 = load ptr, ptr %10, align 8, !tbaa !129
  %27 = call i32 @Gia_ObjIsCi(ptr noundef %26)
  %28 = icmp ne i32 %27, 0
  br i1 %28, label %32, label %29

29:                                               ; preds = %25
  %30 = load i32, ptr %9, align 4, !tbaa !16
  %31 = icmp eq i32 %30, 0
  br i1 %31, label %32, label %38

32:                                               ; preds = %29, %25
  %33 = load ptr, ptr %6, align 8, !tbaa !14
  %34 = load i32, ptr %8, align 4, !tbaa !16
  %35 = call i32 @Cbs3_ManAddNode(ptr noundef %33, i32 noundef %34, i32 noundef 0, i32 noundef 0)
  %36 = load ptr, ptr %10, align 8, !tbaa !129
  %37 = getelementptr inbounds nuw %struct.Gia_Obj_t_, ptr %36, i32 0, i32 1
  store i32 %35, ptr %37, align 4, !tbaa !143
  store i32 %35, ptr %5, align 4
  store i32 1, ptr %13, align 4
  br label %72

38:                                               ; preds = %29
  %39 = load ptr, ptr %6, align 8, !tbaa !14
  %40 = load ptr, ptr %7, align 8, !tbaa !28
  %41 = load ptr, ptr %10, align 8, !tbaa !129
  %42 = load i32, ptr %8, align 4, !tbaa !16
  %43 = call i32 @Gia_ObjFaninId0(ptr noundef %41, i32 noundef %42)
  %44 = load i32, ptr %9, align 4, !tbaa !16
  %45 = load ptr, ptr %10, align 8, !tbaa !129
  %46 = call i32 @Gia_ObjFaninC0(ptr noundef %45)
  %47 = sub nsw i32 %44, %46
  %48 = call i32 @Cbs3_ManToSolver2_rec(ptr noundef %39, ptr noundef %40, i32 noundef %43, i32 noundef %47)
  store i32 %48, ptr %11, align 4, !tbaa !16
  %49 = load ptr, ptr %6, align 8, !tbaa !14
  %50 = load ptr, ptr %7, align 8, !tbaa !28
  %51 = load ptr, ptr %10, align 8, !tbaa !129
  %52 = load i32, ptr %8, align 4, !tbaa !16
  %53 = call i32 @Gia_ObjFaninId1(ptr noundef %51, i32 noundef %52)
  %54 = load i32, ptr %9, align 4, !tbaa !16
  %55 = load ptr, ptr %10, align 8, !tbaa !129
  %56 = call i32 @Gia_ObjFaninC1(ptr noundef %55)
  %57 = sub nsw i32 %54, %56
  %58 = call i32 @Cbs3_ManToSolver2_rec(ptr noundef %49, ptr noundef %50, i32 noundef %53, i32 noundef %57)
  store i32 %58, ptr %12, align 4, !tbaa !16
  %59 = load ptr, ptr %6, align 8, !tbaa !14
  %60 = load i32, ptr %8, align 4, !tbaa !16
  %61 = load i32, ptr %11, align 4, !tbaa !16
  %62 = load ptr, ptr %10, align 8, !tbaa !129
  %63 = call i32 @Gia_ObjFaninC0(ptr noundef %62)
  %64 = xor i32 %61, %63
  %65 = load i32, ptr %12, align 4, !tbaa !16
  %66 = load ptr, ptr %10, align 8, !tbaa !129
  %67 = call i32 @Gia_ObjFaninC1(ptr noundef %66)
  %68 = xor i32 %65, %67
  %69 = call i32 @Cbs3_ManAddNode(ptr noundef %59, i32 noundef %60, i32 noundef %64, i32 noundef %68)
  %70 = load ptr, ptr %10, align 8, !tbaa !129
  %71 = getelementptr inbounds nuw %struct.Gia_Obj_t_, ptr %70, i32 0, i32 1
  store i32 %69, ptr %71, align 4, !tbaa !143
  store i32 %69, ptr %5, align 4
  store i32 1, ptr %13, align 4
  br label %72

72:                                               ; preds = %38, %32, %21
  call void @llvm.lifetime.end.p0(i64 4, ptr %12) #12
  call void @llvm.lifetime.end.p0(i64 4, ptr %11) #12
  call void @llvm.lifetime.end.p0(i64 8, ptr %10) #12
  %73 = load i32, ptr %5, align 4
  ret i32 %73
}