; Function Attrs: inlinehint nounwind uwtable
define internal fastcc i32 @Cbs3_ManToSolver2_rec(ptr noundef %0, ptr noundef %1, i32 noundef %2, i32 noundef %3) unnamed_addr #10 {
  %5 = getelementptr i8, ptr %1, i64 32
  %.val = load ptr, ptr %5, align 8, !tbaa !119
  %6 = sext i32 %2 to i64
  %7 = getelementptr inbounds %struct.Gia_Obj_t_, ptr %.val, i64 %6
  %8 = getelementptr i8, ptr %1, i64 176
  %.val34 = load i32, ptr %8, align 8, !tbaa !130
  %9 = getelementptr i8, ptr %1, i64 616
  %.val35 = load ptr, ptr %9, align 8, !tbaa !131
  %10 = getelementptr inbounds i32, ptr %.val35, i64 %6
  %11 = load i32, ptr %10, align 4, !tbaa !37
  %.not.i = icmp eq i32 %11, %.val34
  br i1 %.not.i, label %Gia_ObjUpdateTravIdCurrentId.exit, label %14

Gia_ObjUpdateTravIdCurrentId.exit:                ; preds = %4
  %12 = getelementptr inbounds nuw i8, ptr %7, i64 8
  %13 = load i32, ptr %12, align 4, !tbaa !122
  br label %common.ret42

14:                                               ; preds = %4
  store i32 %.val34, ptr %10, align 4, !tbaa !37
  %.val36 = load i64, ptr %7, align 4
  %15 = and i64 %.val36, 2684354559
  %narrow.i = icmp eq i64 %15, 2684354559
  %16 = icmp eq i32 %3, 0
  %or.cond = or i1 %16, %narrow.i
  br i1 %or.cond, label %17, label %20

17:                                               ; preds = %14
  %18 = tail call fastcc i32 @Cbs3_ManAddNode(ptr noundef %0, i32 noundef %2, i32 noundef 0, i32 noundef 0)
  %19 = getelementptr inbounds nuw i8, ptr %7, i64 8
  store i32 %18, ptr %19, align 4, !tbaa !122
  br label %common.ret42

common.ret42:                                     ; preds = %17, %Gia_ObjUpdateTravIdCurrentId.exit, %20
  %common.ret42.op = phi i32 [ %45, %20 ], [ %13, %Gia_ObjUpdateTravIdCurrentId.exit ], [ %18, %17 ]
  ret i32 %common.ret42.op

20:                                               ; preds = %14
  %21 = trunc i64 %.val36 to i32
  %22 = and i32 %21, 536870911
  %23 = sub nsw i32 %2, %22
  %24 = shl i32 %21, 2
  %25 = ashr i32 %24, 31
  %26 = add i32 %25, %3
  %27 = tail call fastcc i32 @Cbs3_ManToSolver2_rec(ptr noundef %0, ptr noundef nonnull %1, i32 noundef %23, i32 noundef %26)
  %.val37 = load i64, ptr %7, align 4
  %28 = lshr i64 %.val37, 32
  %29 = trunc nuw i64 %28 to i32
  %30 = and i32 %29, 536870911
  %31 = sub nsw i32 %2, %30
  %32 = shl i64 %.val37, 2
  %33 = ashr i64 %32, 63
  %34 = trunc nsw i64 %33 to i32
  %35 = add i32 %3, %34
  %36 = tail call fastcc i32 @Cbs3_ManToSolver2_rec(ptr noundef %0, ptr noundef nonnull %1, i32 noundef %31, i32 noundef %35)
  %.val31 = load i64, ptr %7, align 4
  %37 = trunc i64 %.val31 to i32
  %38 = lshr i32 %37, 29
  %39 = and i32 %38, 1
  %40 = xor i32 %39, %27
  %41 = lshr i64 %.val31, 61
  %42 = trunc nuw nsw i64 %41 to i32
  %43 = and i32 %42, 1
  %44 = xor i32 %43, %36
  %45 = tail call fastcc i32 @Cbs3_ManAddNode(ptr noundef %0, i32 noundef %2, i32 noundef %40, i32 noundef %44)
  %46 = getelementptr inbounds nuw i8, ptr %7, i64 8
  store i32 %45, ptr %46, align 4, !tbaa !122
  br label %common.ret42
}